target datalayout = "e-m:e-p270:32:32-p271:32:32-p272:64:64-i64:64-i128:128-f80:128-n8:16:32:64-S128"
target triple = "x86_64-pc-linux-gnu"

%struct.Vec_Int_t_ = type { i32, i32, ptr }
%struct.Abc_Obj_t_ = type { ptr, ptr, i32, i32, %struct.Vec_Int_t_, %struct.Vec_Int_t_, %union.anon, %union.anon.0 }
%union.anon = type { ptr }
%union.anon.0 = type { ptr }

; Function Attrs: inlinehint nounwind uwtable
define internal i32 @Abc_ObjFanoutNum(ptr noundef %0) #2 {
  %2 = alloca ptr, align 8
  store ptr %0, ptr %2, align 8, !tbaa !40
  %3 = load ptr, ptr %2, align 8, !tbaa !40
  %4 = getelementptr inbounds nuw %struct.Abc_Obj_t_, ptr %3, i32 0, i32 5
  %5 = getelementptr inbounds nuw %struct.Vec_Int_t_, ptr %4, i32 0, i32 1
  %6 = load i32, ptr %5, align 4, !tbaa !43
  ret i32 %6
}

; Function Attrs: nounwind uwtable
define i32 @Abc_ObjHasDupFanouts(ptr noundef %0) #0 {
  %2 = alloca i32, align 4
  %3 = alloca ptr, align 8
  %4 = alloca ptr, align 8
  %5 = alloca i32, align 4
  %6 = alloca i32, align 4
  %7 = alloca i32, align 4
  %8 = alloca i32, align 4
  store ptr %0, ptr %3, align 8, !tbaa !40
  call void @llvm.lifetime.start.p0(i64 8, ptr %4) #10
  %9 = load ptr, ptr %3, align 8, !tbaa !40
  %10 = getelementptr inbounds nuw %struct.Abc_Obj_t_, ptr %9, i32 0, i32 5
  %11 = getelementptr inbounds nuw %struct.Vec_Int_t_, ptr %10, i32 0, i32 2
  %12 = load ptr, ptr %11, align 8, !tbaa !60
  store ptr %12, ptr %4, align 8, !tbaa !12
  call void @llvm.lifetime.start.p0(i64 4, ptr %5) #10
  call void @llvm.lifetime.start.p0(i64 4, ptr %6) #10
  call void @llvm.lifetime.start.p0(i64 4, ptr %7) #10
  %13 = load ptr, ptr %3, align 8, !tbaa !40
  %14 = call i32 @Abc_ObjFanoutNum(ptr noundef %13)
  store i32 %14, ptr %7, align 4, !tbaa !8
  store i32 0, ptr %5, align 4, !tbaa !8
  br label %15

15:                                               ; preds = %44, %1
  %16 = load i32, ptr %5, align 4, !tbaa !8
  %17 = load i32, ptr %7, align 4, !tbaa !8
  %18 = icmp slt i32 %16, %17
  br i1 %18, label %19, label %47

19:                                               ; preds = %15
  %20 = load i32, ptr %5, align 4, !tbaa !8
  %21 = add nsw i32 %20, 1
  store i32 %21, ptr %6, align 4, !tbaa !8
  br label %22

22:                                               ; preds = %40, %19
  %23 = load i32, ptr %6, align 4, !tbaa !8
  %24 = load i32, ptr %7, align 4, !tbaa !8
  %25 = icmp slt i32 %23, %24
  br i1 %25, label %26, label %43

26:                                               ; preds = %22
  %27 = load ptr, ptr %4, align 8, !tbaa !12
  %28 = load i32, ptr %5, align 4, !tbaa !8
  %29 = sext i32 %28 to i64
  %30 = getelementptr inbounds i32, ptr %27, i64 %29
  %31 = load i32, ptr %30, align 4, !tbaa !8
  %32 = load ptr, ptr %4, align 8, !tbaa !12
  %33 = load i32, ptr %6, align 4, !tbaa !8
  %34 = sext i32 %33 to i64
  %35 = getelementptr inbounds i32, ptr %32, i64 %34
  %36 = load i32, ptr %35, align 4, !tbaa !8
  %37 = icmp eq i32 %31, %36
  br i1 %37, label %38, label %39

38:                                               ; preds = %26
  store i32 1, ptr %2, align 4
  store i32 1, ptr %8, align 4
  br label %48

39:                                               ; preds = %26
  br label %40

40:                                               ; preds = %39
  %41 = load i32, ptr %6, align 4, !tbaa !8
  %42 = add nsw i32 %41, 1
  store i32 %42, ptr %6, align 4, !tbaa !8
  br label %22, !llvm.loop !66

43:                                               ; preds = %22
  br label %44

44:                                               ; preds = %43
  %45 = load i32, ptr %5, align 4, !tbaa !8
  %46 = add nsw i32 %45, 1
  store i32 %46, ptr %5, align 4, !tbaa !8
  br label %15, !llvm.loop !67

47:                                               ; preds = %15
  store i32 0, ptr %2, align 4
  store i32 1, ptr %8, align 4
  br label %48

48:                                               ; preds = %47, %38
  call void @llvm.lifetime.end.p0(i64 4, ptr %7) #10
  call void @llvm.lifetime.end.p0(i64 4, ptr %6) #10
  call void @llvm.lifetime.end.p0(i64 4, ptr %5) #10
  call void @llvm.lifetime.end.p0(i64 8, ptr %4) #10
  %49 = load i32, ptr %2, align 4
  ret i32 %49
}